target datalayout = "e-m:e-p270:32:32-p271:32:32-p272:64:64-i64:64-i128:128-f80:128-n8:16:32:64-S128"
target triple = "x86_64-pc-linux-gnu"

%struct.ARKodeARKStepMemRec = type { ptr, ptr, i32, i32, i32, i32, i32, i32, ptr, ptr, ptr, ptr, ptr, ptr, i32, i32, i32, i32, ptr, ptr, ptr, ptr, i32, ptr, double, double, double, double, i32, double, double, double, double, double, double, i32, i64, i32, i32, i32, ptr, ptr, ptr, ptr, ptr, ptr, i32, ptr, ptr, ptr, ptr, ptr, ptr, i32, i32, i64, i64, i64, i64, i64, ptr, ptr, i32, i32, i32, double, double, ptr, i32, ptr, ptr }

@__func__.ARKStepGetCurrentButcherTables = private unnamed_addr constant [31 x i8] c"ARKStepGetCurrentButcherTables\00", align 1

; Function Attrs: nounwind uwtable
define i32 @ARKStepGetCurrentButcherTables(ptr noundef %0, ptr noundef %1, ptr noundef %2) #0 {
  %4 = alloca i32, align 4
  %5 = alloca ptr, align 8
  %6 = alloca ptr, align 8
  %7 = alloca ptr, align 8
  %8 = alloca ptr, align 8
  %9 = alloca ptr, align 8
  %10 = alloca i32, align 4
  %11 = alloca i32, align 4
  store ptr %0, ptr %5, align 8, !tbaa !3
  store ptr %1, ptr %6, align 8, !tbaa !56
  store ptr %2, ptr %7, align 8, !tbaa !56
  call void @llvm.lifetime.start.p0(i64 8, ptr %8) #4
  call void @llvm.lifetime.start.p0(i64 8, ptr %9) #4
  call void @llvm.lifetime.start.p0(i64 4, ptr %10) #4
  %12 = load ptr, ptr %5, align 8, !tbaa !3
  %13 = call i32 @arkStep_AccessARKODEStepMem(ptr noundef %12, ptr noundef @__func__.ARKStepGetCurrentButcherTables, ptr noundef %8, ptr noundef %9)
  store i32 %13, ptr %10, align 4, !tbaa !7
  %14 = load i32, ptr %10, align 4, !tbaa !7
  %15 = icmp ne i32 %14, 0
  br i1 %15, label %16, label %18

16:                                               ; preds = %3
  %17 = load i32, ptr %10, align 4, !tbaa !7
  store i32 %17, ptr %4, align 4
  store i32 1, ptr %11, align 4
  br label %27

18:                                               ; preds = %3
  %19 = load ptr, ptr %9, align 8, !tbaa !9
  %20 = getelementptr inbounds nuw %struct.ARKodeARKStepMemRec, ptr %19, i32 0, i32 19
  %21 = load ptr, ptr %20, align 8, !tbaa !47
  %22 = load ptr, ptr %6, align 8, !tbaa !56
  store ptr %21, ptr %22, align 8, !tbaa !36
  %23 = load ptr, ptr %9, align 8, !tbaa !9
  %24 = getelementptr inbounds nuw %struct.ARKodeARKStepMemRec, ptr %23, i32 0, i32 18
  %25 = load ptr, ptr %24, align 8, !tbaa !43
  %26 = load ptr, ptr %7, align 8, !tbaa !56
  store ptr %25, ptr %26, align 8, !tbaa !36
  store i32 0, ptr %4, align 4
  store i32 1, ptr %11, align 4
  br label %27

27:                                               ; preds = %18, %16
  call void @llvm.lifetime.end.p0(i64 4, ptr %10) #4
  call void @llvm.lifetime.end.p0(i64 8, ptr %9) #4
  call void @llvm.lifetime.end.p0(i64 8, ptr %8) #4
  %28 = load i32, ptr %4, align 4
  ret i32 %28
}