; Function Attrs: nounwind uwtable
define i32 @ARKStepGetCurrentButcherTables(ptr noundef %0, ptr noundef writeonly captures(none) %1, ptr noundef writeonly captures(none) %2) local_unnamed_addr #0 {
  %4 = alloca ptr, align 8
  %5 = alloca ptr, align 8
  call void @llvm.lifetime.start.p0(i64 8, ptr nonnull %4) #5
  call void @llvm.lifetime.start.p0(i64 8, ptr nonnull %5) #5
  %6 = call i32 @arkStep_AccessARKODEStepMem(ptr noundef %0, ptr noundef nonnull @__func__.ARKStepGetCurrentButcherTables, ptr noundef nonnull %4, ptr noundef nonnull %5) #5
  %.not = icmp eq i32 %6, 0
  br i1 %.not, label %7, label %13

7:                                                ; preds = %3
  %8 = load ptr, ptr %5, align 8, !tbaa !3
  %9 = getelementptr inbounds nuw i8, ptr %8, i64 112
  %10 = load ptr, ptr %9, align 8, !tbaa !44
  store ptr %10, ptr %1, align 8, !tbaa !49
  %11 = getelementptr inbounds nuw i8, ptr %8, i64 104
  %12 = load ptr, ptr %11, align 8, !tbaa !40
  store ptr %12, ptr %2, align 8, !tbaa !49
  br label %13

13:                                               ; preds = %3, %7
  call void @llvm.lifetime.end.p0(i64 8, ptr nonnull %5) #5
  call void @llvm.lifetime.end.p0(i64 8, ptr nonnull %4) #5
  ret i32 %6
}